target datalayout = "e-m:e-p270:32:32-p271:32:32-p272:64:64-i64:64-i128:128-f80:128-n8:16:32:64-S128"
target triple = "x86_64-pc-linux-gnu"

%struct._php_ps_globals = type { ptr, ptr, ptr, ptr, ptr, i64, ptr, ptr, ptr, i8, i8, ptr, ptr, ptr, i32, ptr, i32, i32, %struct._php_random_status_state_pcgoneseq128xslrr64, %struct._php_random_algo_with_state, i64, i64, i64, i64, %struct.anon, ptr, i8, i8, i8, i8, i8, i8, i8, i8, ptr, %struct._zval_struct, i64, i64, ptr, ptr, ptr, i64, double, i8, i8, i8, i8, i8, i8, ptr }
%struct._php_random_status_state_pcgoneseq128xslrr64 = type { i128 }
%struct._php_random_algo_with_state = type { ptr, ptr }
%struct.anon = type { %struct._zval_struct, %struct._zval_struct, %struct._zval_struct, %struct._zval_struct, %struct._zval_struct, %struct._zval_struct, %struct._zval_struct, %struct._zval_struct, %struct._zval_struct }
%struct._zval_struct = type { %union._zend_value, %union.anon, %union.anon.3 }
%union._zend_value = type { i64 }
%union.anon = type { i32 }
%union.anon.3 = type { i32 }
%struct._zend_array = type { %struct._zend_refcounted_h, %union.anon.5, i32, %union.anon.7, i32, i32, i32, i32, i64, ptr }
%struct._zend_refcounted_h = type { i32, %union.anon.4 }
%union.anon.4 = type { i32 }
%union.anon.5 = type { i32 }
%union.anon.7 = type { ptr }
%struct._zend_llist = type { ptr, ptr, i64, i64, ptr, i8, ptr }
%struct._sapi_globals_struct = type { ptr, %struct.sapi_request_info, %struct.sapi_headers_struct, i64, i8, i8, %struct.stat, ptr, ptr, ptr, i64, i32, i8, double, %struct._zend_array, %struct._zval_struct, %struct._zend_fcall_info_cache, %struct.sapi_request_parse_body_context }
%struct.sapi_request_info = type { ptr, ptr, ptr, i64, ptr, ptr, ptr, ptr, i8, i8, i8, ptr, ptr, ptr, ptr, ptr, ptr, ptr, i32, i32, ptr, i32 }
%struct.sapi_headers_struct = type { %struct._zend_llist, i32, i8, ptr, ptr }
%struct.stat = type { i64, i64, i64, i32, i32, i32, i32, i64, i64, i64, i64, %struct.timespec, %struct.timespec, %struct.timespec, [3 x i64] }
%struct.timespec = type { i64, i64 }
%struct._zend_fcall_info_cache = type { ptr, ptr, ptr, ptr, ptr }
%struct.sapi_request_parse_body_context = type { i8, [5 x %struct.anon.9] }
%struct.anon.9 = type { i8, i64 }
%struct._zend_string = type { %struct._zend_refcounted_h, i64, i64, [1 x i8] }

@ps_globals = global %struct._php_ps_globals zeroinitializer, align 16
@sapi_globals = external global %struct._sapi_globals_struct, align 8
@.str.237 = private unnamed_addr constant [64 x i8] c"Session ini settings cannot be changed when a session is active\00", align 1
@.str.238 = private unnamed_addr constant [76 x i8] c"Session ini settings cannot be changed after headers have already been sent\00", align 1
@.str.239 = private unnamed_addr constant [45 x i8] c"session.name \22%s\22 cannot be numeric or empty\00", align 1

; Function Attrs: nounwind uwtable
define internal i32 @OnUpdateName(ptr noundef %0, ptr noundef %1, ptr noundef %2, ptr noundef %3, ptr noundef %4, i32 noundef %5) #0 {
  %7 = alloca i8, align 1
  %8 = alloca ptr, align 8
  %9 = alloca i64, align 8
  %10 = alloca ptr, align 8
  %11 = alloca ptr, align 8
  %12 = alloca i8, align 1
  %13 = alloca ptr, align 8
  %14 = alloca ptr, align 8
  %15 = alloca ptr, align 8
  %16 = alloca i64, align 8
  %17 = alloca ptr, align 8
  %18 = alloca ptr, align 8
  %19 = alloca i8, align 1
  %20 = alloca i32, align 4
  %21 = alloca ptr, align 8
  %22 = alloca ptr, align 8
  %23 = alloca ptr, align 8
  %24 = alloca ptr, align 8
  %25 = alloca ptr, align 8
  %26 = alloca i32, align 4
  %27 = alloca i32, align 4
  store ptr %0, ptr %21, align 8
  store ptr %1, ptr %22, align 8
  store ptr %2, ptr %23, align 8
  store ptr %3, ptr %24, align 8
  store ptr %4, ptr %25, align 8
  store i32 %5, ptr %26, align 4
  %28 = load i32, ptr getelementptr inbounds (%struct._php_ps_globals, ptr @ps_globals, i32 0, i32 14), align 8
  %29 = icmp eq i32 %28, 2
  br i1 %29, label %30, label %31

30:                                               ; preds = %6
  call void (ptr, i32, ptr, ...) @php_error_docref(ptr noundef null, i32 noundef 2, ptr noundef @.str.237)
  store i32 -1, ptr %20, align 4
  br label %105

31:                                               ; preds = %6
  %32 = load i8, ptr getelementptr inbounds (%struct._sapi_globals_struct, ptr @sapi_globals, i32 0, i32 5), align 1
  %33 = zext i8 %32 to i32
  %34 = icmp ne i32 %33, 0
  br i1 %34, label %35, label %39

35:                                               ; preds = %31
  %36 = load i32, ptr %26, align 4
  %37 = icmp ne i32 %36, 8
  br i1 %37, label %38, label %39

38:                                               ; preds = %35
  call void (ptr, i32, ptr, ...) @php_error_docref(ptr noundef null, i32 noundef 2, ptr noundef @.str.238)
  store i32 -1, ptr %20, align 4
  br label %105

39:                                               ; preds = %35, %31
  %40 = load ptr, ptr %22, align 8
  %41 = getelementptr inbounds %struct._zend_string, ptr %40, i32 0, i32 2
  %42 = load i64, ptr %41, align 8
  %43 = icmp ne i64 %42, 0
  br i1 %43, label %44, label %77

44:                                               ; preds = %39
  %45 = load ptr, ptr %22, align 8
  %46 = getelementptr inbounds %struct._zend_string, ptr %45, i32 0, i32 3
  %47 = getelementptr inbounds [1 x i8], ptr %46, i64 0, i64 0
  %48 = load ptr, ptr %22, align 8
  %49 = getelementptr inbounds %struct._zend_string, ptr %48, i32 0, i32 2
  %50 = load i64, ptr %49, align 8
  store ptr %47, ptr %15, align 8
  store i64 %50, ptr %16, align 8
  store ptr null, ptr %17, align 8
  store ptr null, ptr %18, align 8
  store i8 0, ptr %19, align 1
  %51 = load ptr, ptr %15, align 8
  %52 = load i64, ptr %16, align 8
  %53 = load ptr, ptr %17, align 8
  %54 = load ptr, ptr %18, align 8
  %55 = load i8, ptr %19, align 1
  %56 = trunc i8 %55 to i1
  store ptr %51, ptr %8, align 8
  store i64 %52, ptr %9, align 8
  store ptr %53, ptr %10, align 8
  store ptr %54, ptr %11, align 8
  %57 = zext i1 %56 to i8
  store i8 %57, ptr %12, align 1
  store ptr null, ptr %13, align 8
  store ptr null, ptr %14, align 8
  %58 = load ptr, ptr %8, align 8
  %59 = load i8, ptr %58, align 1
  %60 = sext i8 %59 to i32
  %61 = icmp sgt i32 %60, 57
  br i1 %61, label %62, label %63

62:                                               ; preds = %44
  store i8 0, ptr %7, align 1
  br label %73

63:                                               ; preds = %44
  %64 = load ptr, ptr %8, align 8
  %65 = load i64, ptr %9, align 8
  %66 = load ptr, ptr %10, align 8
  %67 = load ptr, ptr %11, align 8
  %68 = load i8, ptr %12, align 1
  %69 = trunc i8 %68 to i1
  %70 = load ptr, ptr %13, align 8
  %71 = load ptr, ptr %14, align 8
  %72 = call zeroext i8 @_is_numeric_string_ex(ptr noundef %64, i64 noundef %65, ptr noundef %66, ptr noundef %67, i1 noundef zeroext %69, ptr noundef %70, ptr noundef %71) #14
  store i8 %72, ptr %7, align 1
  br label %73

73:                                               ; preds = %63, %62
  %74 = load i8, ptr %7, align 1
  %75 = zext i8 %74 to i32
  %76 = icmp ne i32 %75, 0
  br i1 %76, label %77, label %97

77:                                               ; preds = %73, %39
  %78 = load i32, ptr %26, align 4
  %79 = icmp eq i32 %78, 16
  br i1 %79, label %86, label %80

80:                                               ; preds = %77
  %81 = load i32, ptr %26, align 4
  %82 = icmp eq i32 %81, 4
  br i1 %82, label %86, label %83

83:                                               ; preds = %80
  %84 = load i32, ptr %26, align 4
  %85 = icmp eq i32 %84, 1
  br i1 %85, label %86, label %87

86:                                               ; preds = %83, %80, %77
  store i32 2, ptr %27, align 4
  br label %88

87:                                               ; preds = %83
  store i32 1, ptr %27, align 4
  br label %88

88:                                               ; preds = %87, %86
  %89 = load i32, ptr %26, align 4
  %90 = icmp ne i32 %89, 8
  br i1 %90, label %91, label %96

91:                                               ; preds = %88
  %92 = load i32, ptr %27, align 4
  %93 = load ptr, ptr %22, align 8
  %94 = getelementptr inbounds %struct._zend_string, ptr %93, i32 0, i32 3
  %95 = getelementptr inbounds [1 x i8], ptr %94, i64 0, i64 0
  call void (ptr, i32, ptr, ...) @php_error_docref(ptr noundef null, i32 noundef %92, ptr noundef @.str.239, ptr noundef %95)
  br label %96

96:                                               ; preds = %91, %88
  store i32 -1, ptr %20, align 4
  br label %105

97:                                               ; preds = %73
  %98 = load ptr, ptr %21, align 8
  %99 = load ptr, ptr %22, align 8
  %100 = load ptr, ptr %23, align 8
  %101 = load ptr, ptr %24, align 8
  %102 = load ptr, ptr %25, align 8
  %103 = load i32, ptr %26, align 4
  %104 = call i32 @OnUpdateStringUnempty(ptr noundef %98, ptr noundef %99, ptr noundef %100, ptr noundef %101, ptr noundef %102, i32 noundef %103)
  store i32 %104, ptr %20, align 4
  br label %105

105:                                              ; preds = %97, %96, %38, %30
  %106 = load i32, ptr %20, align 4
  ret i32 %106
}