; Function Attrs: nounwind uwtable
define internal i32 @OnUpdateName(ptr noundef %0, ptr noundef %1, ptr noundef %2, ptr noundef %3, ptr noundef %4, i32 noundef %5) #0 {
  %7 = load i32, ptr getelementptr inbounds (%struct._php_ps_globals, ptr @ps_globals, i64 0, i32 14), align 8
  %8 = icmp eq i32 %7, 2
  br i1 %8, label %9, label %10

9:                                                ; preds = %6
  tail call void (ptr, i32, ptr, ...) @php_error_docref(ptr noundef null, i32 noundef 2, ptr noundef nonnull @.str.237) #23
  br label %31

10:                                               ; preds = %6
  %11 = load i8, ptr getelementptr inbounds (%struct._sapi_globals_struct, ptr @sapi_globals, i64 0, i32 5), align 1
  %12 = icmp ne i8 %11, 0
  %13 = icmp ne i32 %5, 8
  %or.cond = and i1 %13, %12
  br i1 %or.cond, label %14, label %15

14:                                               ; preds = %10
  tail call void (ptr, i32, ptr, ...) @php_error_docref(ptr noundef null, i32 noundef 2, ptr noundef nonnull @.str.238) #23
  br label %31

15:                                               ; preds = %10
  %16 = getelementptr inbounds i8, ptr %1, i64 16
  %17 = load i64, ptr %16, align 8
  %.not = icmp eq i64 %17, 0
  br i1 %.not, label %25, label %18

18:                                               ; preds = %15
  %19 = getelementptr inbounds i8, ptr %1, i64 24
  %20 = load i8, ptr %19, align 1
  %21 = icmp sgt i8 %20, 57
  br i1 %21, label %.critedge, label %22

22:                                               ; preds = %18
  %23 = tail call zeroext i8 @_is_numeric_string_ex(ptr noundef nonnull %19, i64 noundef %17, ptr noundef null, ptr noundef null, i1 noundef zeroext false, ptr noundef null, ptr noundef null) #23
  %24 = icmp eq i8 %23, 0
  br i1 %24, label %.critedge, label %25

25:                                               ; preds = %22, %15
  switch i32 %5, label %26 [
    i32 16, label %27
    i32 4, label %27
    i32 1, label %27
  ]

26:                                               ; preds = %25
  br label %27

27:                                               ; preds = %25, %25, %25, %26
  %.0 = phi i32 [ 1, %26 ], [ 2, %25 ], [ 2, %25 ], [ 2, %25 ]
  br i1 %13, label %28, label %31

28:                                               ; preds = %27
  %29 = getelementptr inbounds i8, ptr %1, i64 24
  tail call void (ptr, i32, ptr, ...) @php_error_docref(ptr noundef null, i32 noundef %.0, ptr noundef nonnull @.str.239, ptr noundef nonnull %29) #23
  br label %31

.critedge:                                        ; preds = %18, %22
  %30 = tail call i32 @OnUpdateStringUnempty(ptr noundef %0, ptr noundef nonnull %1, ptr noundef %2, ptr noundef %3, ptr noundef %4, i32 noundef %5) #23
  br label %31

31:                                               ; preds = %27, %28, %.critedge, %14, %9
  %.036 = phi i32 [ -1, %9 ], [ -1, %14 ], [ %30, %.critedge ], [ -1, %28 ], [ -1, %27 ]
  ret i32 %.036
}